target datalayout = "e-m:e-p270:32:32-p271:32:32-p272:64:64-i64:64-i128:128-f80:128-n8:16:32:64-S128"
target triple = "x86_64-unknown-linux-gnu"

; Function Attrs: nounwind uwtable
define hidden i32 @ASN1_object_size(i32 noundef %constructed, i32 noundef %length, i32 noundef %tag) #0 {
entry:
  %retval = alloca i32, align 4
  %constructed.addr = alloca i32, align 4
  %length.addr = alloca i32, align 4
  %tag.addr = alloca i32, align 4
  %ret = alloca i32, align 4
  store i32 %constructed, ptr %constructed.addr, align 4
  store i32 %length, ptr %length.addr, align 4
  store i32 %tag, ptr %tag.addr, align 4
  %0 = load i32, ptr %length.addr, align 4
  store i32 %0, ptr %ret, align 4
  %1 = load i32, ptr %ret, align 4
  %inc = add nsw i32 %1, 1
  store i32 %inc, ptr %ret, align 4
  %2 = load i32, ptr %tag.addr, align 4
  %cmp = icmp sge i32 %2, 31
  br i1 %cmp, label %if.then, label %if.end

if.then:                                          ; preds = %entry
  br label %while.cond

while.cond:                                       ; preds = %while.body, %if.then
  %3 = load i32, ptr %tag.addr, align 4
  %cmp1 = icmp sgt i32 %3, 0
  br i1 %cmp1, label %while.body, label %while.end

while.body:                                       ; preds = %while.cond
  %4 = load i32, ptr %tag.addr, align 4
  %shr = ashr i32 %4, 7
  store i32 %shr, ptr %tag.addr, align 4
  %5 = load i32, ptr %ret, align 4
  %inc2 = add nsw i32 %5, 1
  store i32 %inc2, ptr %ret, align 4
  br label %while.cond, !llvm.loop !14

while.end:                                        ; preds = %while.cond
  br label %if.end

if.end:                                           ; preds = %while.end, %entry
  %6 = load i32, ptr %constructed.addr, align 4
  %cmp3 = icmp eq i32 %6, 2
  br i1 %cmp3, label %if.then4, label %if.end5

if.then4:                                         ; preds = %if.end
  %7 = load i32, ptr %ret, align 4
  %add = add nsw i32 %7, 3
  store i32 %add, ptr %retval, align 4
  br label %return

if.end5:                                          ; preds = %if.end
  %8 = load i32, ptr %ret, align 4
  %inc6 = add nsw i32 %8, 1
  store i32 %inc6, ptr %ret, align 4
  %9 = load i32, ptr %length.addr, align 4
  %cmp7 = icmp sgt i32 %9, 127
  br i1 %cmp7, label %if.then8, label %if.end15

if.then8:                                         ; preds = %if.end5
  br label %while.cond9

while.cond9:                                      ; preds = %while.body11, %if.then8
  %10 = load i32, ptr %length.addr, align 4
  %cmp10 = icmp sgt i32 %10, 0
  br i1 %cmp10, label %while.body11, label %while.end14

while.body11:                                     ; preds = %while.cond9
  %11 = load i32, ptr %length.addr, align 4
  %shr12 = ashr i32 %11, 8
  store i32 %shr12, ptr %length.addr, align 4
  %12 = load i32, ptr %ret, align 4
  %inc13 = add nsw i32 %12, 1
  store i32 %inc13, ptr %ret, align 4
  br label %while.cond9, !llvm.loop !15

while.end14:                                      ; preds = %while.cond9
  br label %if.end15

if.end15:                                         ; preds = %while.end14, %if.end5
  %13 = load i32, ptr %ret, align 4
  store i32 %13, ptr %retval, align 4
  br label %return

return:                                           ; preds = %if.end15, %if.then4
  %14 = load i32, ptr %retval, align 4
  ret i32 %14
}