; Function Attrs: nofree norecurse nosync nounwind memory(none) uwtable
define hidden range(i32 -2147483646, -2147483648) i32 @ASN1_object_size(i32 noundef %constructed, i32 noundef %length, i32 noundef %tag) local_unnamed_addr #5 {
entry:
  %inc = add nsw i32 %length, 1
  %cmp = icmp sgt i32 %tag, 30
  br i1 %cmp, label %while.body, label %if.end

while.body:                                       ; preds = %entry, %while.body
  %tag.addr.0 = phi i32 [ %shr, %while.body ], [ %tag, %entry ]
  %ret.1 = phi i32 [ %inc2, %while.body ], [ %inc, %entry ]
  %shr = lshr i32 %tag.addr.0, 7
  %inc2 = add nsw i32 %ret.1, 1
  %cmp1.old.not = icmp samesign ult i32 %tag.addr.0, 128
  br i1 %cmp1.old.not, label %if.end, label %while.body

if.end:                                           ; preds = %while.body, %entry
  %ret.0 = phi i32 [ %inc, %entry ], [ %inc2, %while.body ]
  %cmp3 = icmp eq i32 %constructed, 2
  br i1 %cmp3, label %if.then4, label %if.end5

if.then4:                                         ; preds = %if.end
  %add = add nsw i32 %ret.0, 3
  br label %return

if.end5:                                          ; preds = %if.end
  %inc6 = add nsw i32 %ret.0, 1
  %cmp7 = icmp sgt i32 %length, 127
  br i1 %cmp7, label %while.body11, label %return

while.body11:                                     ; preds = %if.end5, %while.body11
  %length.addr.0 = phi i32 [ %shr12, %while.body11 ], [ %length, %if.end5 ]
  %ret.3 = phi i32 [ %inc13, %while.body11 ], [ %inc6, %if.end5 ]
  %shr12 = lshr i32 %length.addr.0, 8
  %inc13 = add nsw i32 %ret.3, 1
  %cmp10.old.not = icmp samesign ult i32 %length.addr.0, 256
  br i1 %cmp10.old.not, label %return, label %while.body11

return:                                           ; preds = %while.body11, %if.end5, %if.then4
  %retval.0 = phi i32 [ %add, %if.then4 ], [ %inc6, %if.end5 ], [ %inc13, %while.body11 ]
  ret i32 %retval.0
}